target datalayout = "e-m:e-p270:32:32-p271:32:32-p272:64:64-i64:64-i128:128-f80:128-n8:16:32:64-S128"
target triple = "x86_64-pc-linux-gnu"

%struct._zend_array = type { %struct._zend_refcounted_h, %union.anon.17, i32, %union.anon.19, i32, i32, i32, i32, i64, ptr }
%struct._zend_refcounted_h = type { i32, %union.anon.16 }
%union.anon.16 = type { i32 }
%union.anon.17 = type { i32 }
%union.anon.19 = type { ptr }
%struct._zend_stack = type { i32, i32, i32, ptr }
%struct._zend_string = type { %struct._zend_refcounted_h, i64, i64, [1 x i8] }
%struct._zend_executor_globals = type { %struct._zval_struct, %struct._zval_struct, [32 x ptr], ptr, ptr, %struct._zend_array, %struct._zend_array, ptr, i32, i32, ptr, ptr, ptr, ptr, ptr, ptr, i64, ptr, ptr, i32, i32, i64, i32, i32, i32, i8, i8, %struct.zend_atomic_bool_s, %struct.zend_atomic_bool_s, ptr, i64, ptr, ptr, %struct._zend_array, %struct._zend_array, i32, i8, %struct._zval_struct, %struct._zval_struct, %struct._zend_stack, %struct._zend_stack, %struct._zend_stack, ptr, i32, i32, i64, ptr, ptr, ptr, %struct._zend_objects_store, ptr, ptr, ptr, [3 x %struct._zend_op], ptr, i8, i8, i64, i32, i32, ptr, [16 x %struct._HashTableIterator], ptr, %union._zend_function, %struct._zend_op, %struct._zend_array, i64, %struct.zend_get_gc_buffer, ptr, ptr, ptr, i64, i8, i32, ptr, ptr, i64, %struct._zend_call_stack, i64, i64, [6 x ptr] }
%struct.zend_atomic_bool_s = type { i8 }
%struct._zval_struct = type { %union._zend_value, %union.anon.21, %union.anon.24 }
%union._zend_value = type { i64 }
%union.anon.21 = type { i32 }
%union.anon.24 = type { i32 }
%struct._zend_objects_store = type { ptr, i32, i32, i32 }
%struct._HashTableIterator = type { ptr, i32, i32 }
%union._zend_function = type { %struct._zend_op_array }
%struct._zend_op_array = type { i8, [3 x i8], i32, ptr, ptr, ptr, i32, i32, ptr, ptr, ptr, ptr, i32, i32, i32, i32, ptr, ptr, ptr, ptr, ptr, i32, i32, ptr, ptr, ptr, i32, i32, i32, i32, ptr, ptr, [6 x ptr] }
%struct._zend_op = type { ptr, %union._znode_op, %union._znode_op, %union._znode_op, i32, i32, i8, i8, i8, i8 }
%union._znode_op = type { i32 }
%struct.zend_get_gc_buffer = type { ptr, ptr, ptr }
%struct._zend_call_stack = type { ptr, i64 }
%struct._zend_execute_data = type { ptr, ptr, ptr, ptr, %struct._zval_struct, ptr, ptr, ptr, ptr }
%struct._zend_reference = type { %struct._zend_refcounted_h, %struct._zval_struct, %union.zend_property_info_source_list }
%union.zend_property_info_source_list = type { ptr }

@executor_globals = external global %struct._zend_executor_globals, align 8
@zend_known_strings = external global ptr, align 8
@.str.119 = private unnamed_addr constant [23 x i8] c"Undefined variable $%S\00", align 1
@zend_one_char_string = external global [256 x ptr], align 16

; Function Attrs: nounwind uwtable
define internal i32 @zend_jit_undefined_op_helper(i32 noundef %0) #0 {
  %2 = alloca i32, align 4
  %3 = alloca ptr, align 8
  %4 = alloca ptr, align 8
  store i32 %0, ptr %2, align 4
  %5 = load ptr, ptr getelementptr inbounds (%struct._zend_executor_globals, ptr @executor_globals, i32 0, i32 17), align 8
  store ptr %5, ptr %3, align 8
  %6 = load ptr, ptr %3, align 8
  %7 = getelementptr inbounds %struct._zend_execute_data, ptr %6, i32 0, i32 3
  %8 = load ptr, ptr %7, align 8
  %9 = getelementptr inbounds %struct._zend_op_array, ptr %8, i32 0, i32 19
  %10 = load ptr, ptr %9, align 8
  %11 = load i32, ptr %2, align 4
  %12 = zext i32 %11 to i64
  %13 = udiv i64 %12, 16
  %14 = sub i64 %13, 5
  %15 = trunc i64 %14 to i32
  %16 = zext i32 %15 to i64
  %17 = getelementptr inbounds ptr, ptr %10, i64 %16
  %18 = load ptr, ptr %17, align 8
  store ptr %18, ptr %4, align 8
  %19 = load ptr, ptr %4, align 8
  call void (i32, ptr, ...) @zend_error_unchecked(i32 noundef 2, ptr noundef @.str.119, ptr noundef %19)
  %20 = load ptr, ptr getelementptr inbounds (%struct._zend_executor_globals, ptr @executor_globals, i32 0, i32 50), align 8
  %21 = icmp eq ptr %20, null
  %22 = zext i1 %21 to i32
  ret i32 %22
}

; Function Attrs: nounwind uwtable
define internal void @zend_jit_fetch_dim_str_is_helper(ptr noundef %0, ptr noundef %1, ptr noundef %2) #0 {
  %4 = alloca i8, align 1
  %5 = alloca ptr, align 8
  %6 = alloca i64, align 8
  %7 = alloca ptr, align 8
  %8 = alloca ptr, align 8
  %9 = alloca i8, align 1
  %10 = alloca ptr, align 8
  %11 = alloca ptr, align 8
  %12 = alloca ptr, align 8
  %13 = alloca i64, align 8
  %14 = alloca ptr, align 8
  %15 = alloca ptr, align 8
  %16 = alloca i8, align 1
  %17 = alloca ptr, align 8
  %18 = alloca ptr, align 8
  %19 = alloca ptr, align 8
  %20 = alloca ptr, align 8
  %21 = alloca ptr, align 8
  %22 = alloca i64, align 8
  %23 = alloca i64, align 8
  %24 = alloca i8, align 1
  %25 = alloca ptr, align 8
  %26 = alloca ptr, align 8
  %27 = alloca i8, align 1
  %28 = alloca ptr, align 8
  %29 = alloca ptr, align 8
  store ptr %0, ptr %19, align 8
  store ptr %1, ptr %20, align 8
  store ptr %2, ptr %21, align 8
  br label %30

30:                                               ; preds = %99, %3
  %31 = load ptr, ptr %20, align 8
  store ptr %31, ptr %17, align 8
  %32 = load ptr, ptr %17, align 8
  %33 = getelementptr inbounds %struct._zval_struct, ptr %32, i32 0, i32 1
  %34 = load i8, ptr %33, align 8
  %35 = zext i8 %34 to i32
  %36 = icmp ne i32 %35, 4
  %37 = xor i1 %36, true
  %38 = xor i1 %37, true
  %39 = zext i1 %38 to i32
  %40 = sext i32 %39 to i64
  %41 = icmp ne i64 %40, 0
  br i1 %41, label %42, label %124

42:                                               ; preds = %30
  %43 = load ptr, ptr %20, align 8
  store ptr %43, ptr %18, align 8
  %44 = load ptr, ptr %18, align 8
  %45 = getelementptr inbounds %struct._zval_struct, ptr %44, i32 0, i32 1
  %46 = load i8, ptr %45, align 8
  %47 = zext i8 %46 to i32
  switch i32 %47, label %104 [
    i32 6, label %48
    i32 0, label %91
    i32 5, label %98
    i32 1, label %98
    i32 2, label %98
    i32 3, label %98
    i32 10, label %99
  ]

48:                                               ; preds = %42
  %49 = load ptr, ptr %20, align 8
  %50 = getelementptr inbounds %struct._zval_struct, ptr %49, i32 0, i32 0
  %51 = load ptr, ptr %50, align 8
  %52 = getelementptr inbounds %struct._zend_string, ptr %51, i32 0, i32 3
  %53 = getelementptr inbounds [1 x i8], ptr %52, i64 0, i64 0
  %54 = load ptr, ptr %20, align 8
  %55 = getelementptr inbounds %struct._zval_struct, ptr %54, i32 0, i32 0
  %56 = load ptr, ptr %55, align 8
  %57 = getelementptr inbounds %struct._zend_string, ptr %56, i32 0, i32 2
  %58 = load i64, ptr %57, align 8
  store ptr %53, ptr %12, align 8
  store i64 %58, ptr %13, align 8
  store ptr null, ptr %14, align 8
  store ptr null, ptr %15, align 8
  store i8 0, ptr %16, align 1
  %59 = load ptr, ptr %12, align 8
  %60 = load i64, ptr %13, align 8
  %61 = load ptr, ptr %14, align 8
  %62 = load ptr, ptr %15, align 8
  %63 = load i8, ptr %16, align 1
  %64 = trunc i8 %63 to i1
  store ptr %59, ptr %5, align 8
  store i64 %60, ptr %6, align 8
  store ptr %61, ptr %7, align 8
  store ptr %62, ptr %8, align 8
  %65 = zext i1 %64 to i8
  store i8 %65, ptr %9, align 1
  store ptr null, ptr %10, align 8
  store ptr null, ptr %11, align 8
  %66 = load ptr, ptr %5, align 8
  %67 = load i8, ptr %66, align 1
  %68 = sext i8 %67 to i32
  %69 = icmp sgt i32 %68, 57
  br i1 %69, label %70, label %71

70:                                               ; preds = %48
  store i8 0, ptr %4, align 1
  br label %81

71:                                               ; preds = %48
  %72 = load ptr, ptr %5, align 8
  %73 = load i64, ptr %6, align 8
  %74 = load ptr, ptr %7, align 8
  %75 = load ptr, ptr %8, align 8
  %76 = load i8, ptr %9, align 1
  %77 = trunc i8 %76 to i1
  %78 = load ptr, ptr %10, align 8
  %79 = load ptr, ptr %11, align 8
  %80 = call zeroext i8 @_is_numeric_string_ex(ptr noundef %72, i64 noundef %73, ptr noundef %74, ptr noundef %75, i1 noundef zeroext %77, ptr noundef %78, ptr noundef %79) #17
  store i8 %80, ptr %4, align 1
  br label %81

81:                                               ; preds = %71, %70
  %82 = load i8, ptr %4, align 1
  %83 = zext i8 %82 to i32
  %84 = icmp eq i32 4, %83
  br i1 %84, label %85, label %86

85:                                               ; preds = %81
  br label %121

86:                                               ; preds = %81
  br label %87

87:                                               ; preds = %86
  %88 = load ptr, ptr %21, align 8
  %89 = getelementptr inbounds %struct._zval_struct, ptr %88, i32 0, i32 1
  store i32 1, ptr %89, align 8
  br label %90

90:                                               ; preds = %87
  br label %191

91:                                               ; preds = %42
  %92 = load ptr, ptr getelementptr inbounds (%struct._zend_executor_globals, ptr @executor_globals, i32 0, i32 17), align 8
  %93 = getelementptr inbounds %struct._zend_execute_data, ptr %92, i32 0, i32 0
  %94 = load ptr, ptr %93, align 8
  %95 = getelementptr inbounds %struct._zend_op, ptr %94, i32 0, i32 2
  %96 = load i32, ptr %95, align 4
  %97 = call i32 @zend_jit_undefined_op_helper(i32 noundef %96)
  br label %98

98:                                               ; preds = %91, %42, %42, %42, %42
  br label %121

99:                                               ; preds = %42
  %100 = load ptr, ptr %20, align 8
  %101 = getelementptr inbounds %struct._zval_struct, ptr %100, i32 0, i32 0
  %102 = load ptr, ptr %101, align 8
  %103 = getelementptr inbounds %struct._zend_reference, ptr %102, i32 0, i32 1
  store ptr %103, ptr %20, align 8
  br label %30

104:                                              ; preds = %42
  %105 = load ptr, ptr @zend_known_strings, align 8
  %106 = getelementptr inbounds ptr, ptr %105, i64 27
  %107 = load ptr, ptr %106, align 8
  %108 = load ptr, ptr %20, align 8
  %109 = load ptr, ptr getelementptr inbounds (%struct._zend_executor_globals, ptr @executor_globals, i32 0, i32 17), align 8
  %110 = getelementptr inbounds %struct._zend_execute_data, ptr %109, i32 0, i32 0
  %111 = load ptr, ptr %110, align 8
  %112 = getelementptr inbounds %struct._zend_op, ptr %111, i32 0, i32 6
  %113 = load i8, ptr %112, align 4
  %114 = zext i8 %113 to i32
  %115 = icmp eq i32 %114, 115
  %116 = select i1 %115, i32 3, i32 2
  call void @zend_illegal_container_offset(ptr noundef %107, ptr noundef %108, i32 noundef %116)
  br label %117

117:                                              ; preds = %104
  %118 = load ptr, ptr %21, align 8
  %119 = getelementptr inbounds %struct._zval_struct, ptr %118, i32 0, i32 1
  store i32 1, ptr %119, align 8
  br label %120

120:                                              ; preds = %117
  br label %191

121:                                              ; preds = %98, %85
  %122 = load ptr, ptr %20, align 8
  %123 = call i64 @zval_get_long_func(ptr noundef %122, i1 noundef zeroext false)
  store i64 %123, ptr %22, align 8
  br label %128

124:                                              ; preds = %30
  %125 = load ptr, ptr %20, align 8
  %126 = getelementptr inbounds %struct._zval_struct, ptr %125, i32 0, i32 0
  %127 = load i64, ptr %126, align 8
  store i64 %127, ptr %22, align 8
  br label %128

128:                                              ; preds = %124, %121
  %129 = load i64, ptr %22, align 8
  %130 = load ptr, ptr %19, align 8
  %131 = getelementptr inbounds %struct._zend_string, ptr %130, i32 0, i32 2
  %132 = load i64, ptr %131, align 8
  %133 = icmp uge i64 %129, %132
  br i1 %133, label %134, label %171

134:                                              ; preds = %128
  %135 = load i64, ptr %22, align 8
  %136 = icmp slt i64 %135, 0
  br i1 %136, label %137, label %166

137:                                              ; preds = %134
  %138 = load ptr, ptr %19, align 8
  %139 = getelementptr inbounds %struct._zend_string, ptr %138, i32 0, i32 2
  %140 = load i64, ptr %139, align 8
  %141 = load i64, ptr %22, align 8
  %142 = add nsw i64 %140, %141
  store i64 %142, ptr %23, align 8
  %143 = load i64, ptr %23, align 8
  %144 = icmp sge i64 %143, 0
  br i1 %144, label %145, label %165

145:                                              ; preds = %137
  br label %146

146:                                              ; preds = %145
  %147 = load ptr, ptr %19, align 8
  %148 = getelementptr inbounds %struct._zend_string, ptr %147, i32 0, i32 3
  %149 = load i64, ptr %23, align 8
  %150 = getelementptr inbounds [1 x i8], ptr %148, i64 0, i64 %149
  %151 = load i8, ptr %150, align 1
  store i8 %151, ptr %24, align 1
  br label %152

152:                                              ; preds = %146
  %153 = load ptr, ptr %21, align 8
  store ptr %153, ptr %25, align 8
  %154 = load i8, ptr %24, align 1
  %155 = zext i8 %154 to i64
  %156 = getelementptr inbounds [256 x ptr], ptr @zend_one_char_string, i64 0, i64 %155
  %157 = load ptr, ptr %156, align 8
  store ptr %157, ptr %26, align 8
  %158 = load ptr, ptr %26, align 8
  %159 = load ptr, ptr %25, align 8
  %160 = getelementptr inbounds %struct._zval_struct, ptr %159, i32 0, i32 0
  store ptr %158, ptr %160, align 8
  %161 = load ptr, ptr %25, align 8
  %162 = getelementptr inbounds %struct._zval_struct, ptr %161, i32 0, i32 1
  store i32 6, ptr %162, align 8
  br label %163

163:                                              ; preds = %152
  br label %164

164:                                              ; preds = %163
  br label %191

165:                                              ; preds = %137
  br label %166

166:                                              ; preds = %165, %134
  br label %167

167:                                              ; preds = %166
  %168 = load ptr, ptr %21, align 8
  %169 = getelementptr inbounds %struct._zval_struct, ptr %168, i32 0, i32 1
  store i32 1, ptr %169, align 8
  br label %170

170:                                              ; preds = %167
  br label %191

171:                                              ; preds = %128
  br label %172

172:                                              ; preds = %171
  %173 = load ptr, ptr %19, align 8
  %174 = getelementptr inbounds %struct._zend_string, ptr %173, i32 0, i32 3
  %175 = load i64, ptr %22, align 8
  %176 = getelementptr inbounds [1 x i8], ptr %174, i64 0, i64 %175
  %177 = load i8, ptr %176, align 1
  store i8 %177, ptr %27, align 1
  br label %178

178:                                              ; preds = %172
  %179 = load ptr, ptr %21, align 8
  store ptr %179, ptr %28, align 8
  %180 = load i8, ptr %27, align 1
  %181 = zext i8 %180 to i64
  %182 = getelementptr inbounds [256 x ptr], ptr @zend_one_char_string, i64 0, i64 %181
  %183 = load ptr, ptr %182, align 8
  store ptr %183, ptr %29, align 8
  %184 = load ptr, ptr %29, align 8
  %185 = load ptr, ptr %28, align 8
  %186 = getelementptr inbounds %struct._zval_struct, ptr %185, i32 0, i32 0
  store ptr %184, ptr %186, align 8
  %187 = load ptr, ptr %28, align 8
  %188 = getelementptr inbounds %struct._zval_struct, ptr %187, i32 0, i32 1
  store i32 6, ptr %188, align 8
  br label %189

189:                                              ; preds = %178
  br label %190

190:                                              ; preds = %189
  br label %191

191:                                              ; preds = %190, %170, %164, %120, %90
  ret void
}