; Function Attrs: nounwind uwtable
define internal void @zend_jit_fetch_dim_str_is_helper(ptr nocapture noundef readonly %0, ptr noundef %1, ptr nocapture noundef writeonly %2) #0 {
  br label %4

4:                                                ; preds = %31, %3
  %.046 = phi ptr [ %1, %3 ], [ %33, %31 ]
  %5 = getelementptr inbounds i8, ptr %.046, i64 8
  %6 = load i8, ptr %5, align 8
  switch i8 %6, label %34 [
    i8 4, label %45
    i8 6, label %7
    i8 0, label %17
    i8 5, label %.loopexit
    i8 1, label %.loopexit
    i8 2, label %.loopexit
    i8 3, label %.loopexit
    i8 10, label %31
  ]

7:                                                ; preds = %4
  %8 = load ptr, ptr %.046, align 8
  %9 = getelementptr inbounds i8, ptr %8, i64 24
  %10 = load i8, ptr %9, align 1
  %11 = icmp sgt i8 %10, 57
  br i1 %11, label %.critedge, label %12

12:                                               ; preds = %7
  %13 = getelementptr inbounds i8, ptr %8, i64 16
  %14 = load i64, ptr %13, align 8
  %15 = tail call zeroext i8 @_is_numeric_string_ex(ptr noundef nonnull %9, i64 noundef %14, ptr noundef null, ptr noundef null, i1 noundef zeroext false, ptr noundef null, ptr noundef null) #32
  %16 = icmp eq i8 %15, 4
  br i1 %16, label %.loopexit, label %.critedge

17:                                               ; preds = %4
  %18 = load ptr, ptr getelementptr inbounds (%struct._zend_executor_globals, ptr @executor_globals, i64 0, i32 17), align 8
  %19 = load ptr, ptr %18, align 8
  %20 = getelementptr inbounds i8, ptr %19, i64 12
  %21 = load i32, ptr %20, align 4
  %22 = getelementptr inbounds i8, ptr %18, i64 24
  %23 = load ptr, ptr %22, align 8
  %24 = getelementptr inbounds i8, ptr %23, i64 112
  %25 = load ptr, ptr %24, align 8
  %26 = lshr i32 %21, 4
  %27 = add nsw i32 %26, -5
  %28 = zext i32 %27 to i64
  %29 = getelementptr inbounds ptr, ptr %25, i64 %28
  %30 = load ptr, ptr %29, align 8
  tail call void (i32, ptr, ...) @zend_error_unchecked(i32 noundef 2, ptr noundef nonnull @.str.119, ptr noundef %30) #32
  br label %.loopexit

31:                                               ; preds = %4
  %32 = load ptr, ptr %.046, align 8
  %33 = getelementptr inbounds i8, ptr %32, i64 8
  br label %4

34:                                               ; preds = %4
  %35 = load ptr, ptr @zend_known_strings, align 8
  %36 = getelementptr inbounds i8, ptr %35, i64 216
  %37 = load ptr, ptr %36, align 8
  %38 = load ptr, ptr getelementptr inbounds (%struct._zend_executor_globals, ptr @executor_globals, i64 0, i32 17), align 8
  %39 = load ptr, ptr %38, align 8
  %40 = getelementptr inbounds i8, ptr %39, i64 28
  %41 = load i8, ptr %40, align 4
  %42 = icmp eq i8 %41, 115
  %43 = select i1 %42, i32 3, i32 2
  tail call void @zend_illegal_container_offset(ptr noundef %37, ptr noundef nonnull %.046, i32 noundef %43) #32
  br label %.critedge

.loopexit:                                        ; preds = %4, %4, %4, %4, %17, %12
  %44 = tail call i64 @zval_get_long_func(ptr noundef nonnull %.046, i1 noundef zeroext false) #32
  br label %47

45:                                               ; preds = %4
  %46 = load i64, ptr %.046, align 8
  br label %47

47:                                               ; preds = %45, %.loopexit
  %.047 = phi i64 [ %44, %.loopexit ], [ %46, %45 ]
  %48 = getelementptr inbounds i8, ptr %0, i64 16
  %49 = load i64, ptr %48, align 8
  %.not51 = icmp ult i64 %.047, %49
  br i1 %.not51, label %62, label %50

50:                                               ; preds = %47
  %51 = icmp slt i64 %.047, 0
  br i1 %51, label %52, label %.critedge

52:                                               ; preds = %50
  %53 = add nsw i64 %49, %.047
  %54 = icmp sgt i64 %53, -1
  br i1 %54, label %55, label %.critedge

55:                                               ; preds = %52
  %56 = getelementptr inbounds i8, ptr %0, i64 24
  %57 = getelementptr inbounds [1 x i8], ptr %56, i64 0, i64 %53
  %58 = load i8, ptr %57, align 1
  %59 = zext i8 %58 to i64
  %60 = getelementptr inbounds [256 x ptr], ptr @zend_one_char_string, i64 0, i64 %59
  %61 = load ptr, ptr %60, align 8
  store ptr %61, ptr %2, align 8
  br label %.critedge

62:                                               ; preds = %47
  %63 = getelementptr inbounds i8, ptr %0, i64 24
  %64 = getelementptr inbounds [1 x i8], ptr %63, i64 0, i64 %.047
  %65 = load i8, ptr %64, align 1
  %66 = zext i8 %65 to i64
  %67 = getelementptr inbounds [256 x ptr], ptr @zend_one_char_string, i64 0, i64 %66
  %68 = load ptr, ptr %67, align 8
  store ptr %68, ptr %2, align 8
  br label %.critedge

.critedge:                                        ; preds = %52, %50, %12, %7, %62, %55, %34
  %.sink = phi i32 [ 6, %62 ], [ 6, %55 ], [ 1, %34 ], [ 1, %7 ], [ 1, %12 ], [ 1, %50 ], [ 1, %52 ]
  %69 = getelementptr inbounds i8, ptr %2, i64 8
  store i32 %.sink, ptr %69, align 8
  ret void
}